; ModuleID = '24/721.c'
source_filename = "24/721.c"
target datalayout = "e-m:e-p270:32:32-p271:32:32-p272:64:64-i64:64-f80:128-n8:16:32:64-S128"
target triple = "x86_64-pc-linux-gnu"

@.str = private unnamed_addr constant [4 x i8] c"%s\0A\00", align 1

; Function Attrs: noinline nounwind uwtable
define dso_local void @main() #0 {
  %1 = alloca [200 x i8], align 16
  %2 = alloca [60 x i32], align 16
  %3 = alloca [60 x i32], align 16
  %4 = alloca i32, align 4
  %5 = alloca i32, align 4
  %6 = alloca i32, align 4
  %7 = alloca i32, align 4
  %8 = alloca i32, align 4
  %9 = alloca i32, align 4
  %10 = alloca i32, align 4
  %11 = alloca i32, align 4
  %12 = alloca i32, align 4
  %13 = bitcast [200 x i8]* %1 to i8*
  call void @llvm.memset.p0i8.i64(i8* align 16 %13, i8 0, i64 200, i1 false)
  %14 = bitcast i8* %13 to <{ i8, [199 x i8] }>*
  %15 = getelementptr inbounds <{ i8, [199 x i8] }>, <{ i8, [199 x i8] }>* %14, i32 0, i32 0
  store i8 32, i8* %15, align 16
  %16 = bitcast [60 x i32]* %2 to i8*
  call void @llvm.memset.p0i8.i64(i8* align 16 %16, i8 0, i64 240, i1 false)
  %17 = bitcast [60 x i32]* %3 to i8*
  call void @llvm.memset.p0i8.i64(i8* align 16 %17, i8 0, i64 240, i1 false)
  %18 = getelementptr inbounds [200 x i8], [200 x i8]* %1, i64 0, i64 0
  %19 = call i32 (i8*, ...) bitcast (i32 (...)* @gets to i32 (i8*, ...)*)(i8* %18)
  %20 = getelementptr inbounds [200 x i8], [200 x i8]* %1, i64 0, i64 0
  %21 = call i64 @strlen(i8* %20) #4
  %22 = trunc i64 %21 to i32
  store i32 %22, i32* %6, align 4
  %23 = load i32, i32* %6, align 4
  %24 = sext i32 %23 to i64
  %25 = getelementptr inbounds [200 x i8], [200 x i8]* %1, i64 0, i64 %24
  store i8 32, i8* %25, align 1
  %26 = load i32, i32* %6, align 4
  %27 = add nsw i32 %26, 1
  %28 = sext i32 %27 to i64
  %29 = getelementptr inbounds [200 x i8], [200 x i8]* %1, i64 0, i64 %28
  store i8 0, i8* %29, align 1
  %30 = getelementptr inbounds [60 x i32], [60 x i32]* %3, i64 0, i64 0
  store i32 -1, i32* %30, align 16
  store i32 1, i32* %9, align 4
  store i32 1, i32* %8, align 4
  br label %31

31:                                               ; preds = %95, %0
  %32 = load i32, i32* %9, align 4
  %33 = icmp slt i32 %32, 200
  br i1 %33, label %34, label %98

34:                                               ; preds = %31
  %35 = load i32, i32* %9, align 4
  %36 = sext i32 %35 to i64
  %37 = getelementptr inbounds [200 x i8], [200 x i8]* %1, i64 0, i64 %36
  %38 = load i8, i8* %37, align 1
  %39 = sext i8 %38 to i32
  %40 = icmp eq i32 %39, 32
  br i1 %40, label %41, label %64

41:                                               ; preds = %34
  %42 = load i32, i32* %9, align 4
  %43 = sub nsw i32 %42, 1
  %44 = sext i32 %43 to i64
  %45 = getelementptr inbounds [200 x i8], [200 x i8]* %1, i64 0, i64 %44
  %46 = load i8, i8* %45, align 1
  %47 = sext i8 %46 to i32
  %48 = icmp sle i32 %47, 122
  br i1 %48, label %49, label %64

49:                                               ; preds = %41
  %50 = load i32, i32* %9, align 4
  %51 = sub nsw i32 %50, 1
  %52 = sext i32 %51 to i64
  %53 = getelementptr inbounds [200 x i8], [200 x i8]* %1, i64 0, i64 %52
  %54 = load i8, i8* %53, align 1
  %55 = sext i8 %54 to i32
  %56 = icmp sge i32 %55, 97
  br i1 %56, label %57, label %64

57:                                               ; preds = %49
  %58 = load i32, i32* %9, align 4
  %59 = load i32, i32* %8, align 4
  %60 = sext i32 %59 to i64
  %61 = getelementptr inbounds [60 x i32], [60 x i32]* %3, i64 0, i64 %60
  store i32 %58, i32* %61, align 4
  %62 = load i32, i32* %8, align 4
  %63 = add nsw i32 %62, 1
  store i32 %63, i32* %8, align 4
  br label %64

64:                                               ; preds = %57, %49, %41, %34
  %65 = load i32, i32* %9, align 4
  %66 = sext i32 %65 to i64
  %67 = getelementptr inbounds [200 x i8], [200 x i8]* %1, i64 0, i64 %66
  %68 = load i8, i8* %67, align 1
  %69 = sext i8 %68 to i32
  %70 = icmp eq i32 %69, 32
  br i1 %70, label %71, label %94

71:                                               ; preds = %64
  %72 = load i32, i32* %9, align 4
  %73 = sub nsw i32 %72, 1
  %74 = sext i32 %73 to i64
  %75 = getelementptr inbounds [200 x i8], [200 x i8]* %1, i64 0, i64 %74
  %76 = load i8, i8* %75, align 1
  %77 = sext i8 %76 to i32
  %78 = icmp sle i32 %77, 90
  br i1 %78, label %79, label %94

79:                                               ; preds = %71
  %80 = load i32, i32* %9, align 4
  %81 = sub nsw i32 %80, 1
  %82 = sext i32 %81 to i64
  %83 = getelementptr inbounds [200 x i8], [200 x i8]* %1, i64 0, i64 %82
  %84 = load i8, i8* %83, align 1
  %85 = sext i8 %84 to i32
  %86 = icmp sge i32 %85, 65
  br i1 %86, label %87, label %94

87:                                               ; preds = %79
  %88 = load i32, i32* %9, align 4
  %89 = load i32, i32* %8, align 4
  %90 = sext i32 %89 to i64
  %91 = getelementptr inbounds [60 x i32], [60 x i32]* %3, i64 0, i64 %90
  store i32 %88, i32* %91, align 4
  %92 = load i32, i32* %8, align 4
  %93 = add nsw i32 %92, 1
  store i32 %93, i32* %8, align 4
  br label %94

94:                                               ; preds = %87, %79, %71, %64
  br label %95

95:                                               ; preds = %94
  %96 = load i32, i32* %9, align 4
  %97 = add nsw i32 %96, 1
  store i32 %97, i32* %9, align 4
  br label %31

98:                                               ; preds = %31
  %99 = load i32, i32* %8, align 4
  store i32 %99, i32* %5, align 4
  store i32 0, i32* %4, align 4
  br label %100

100:                                              ; preds = %118, %98
  %101 = load i32, i32* %4, align 4
  %102 = load i32, i32* %5, align 4
  %103 = icmp slt i32 %101, %102
  br i1 %103, label %104, label %121

104:                                              ; preds = %100
  %105 = load i32, i32* %4, align 4
  %106 = add nsw i32 %105, 1
  %107 = sext i32 %106 to i64
  %108 = getelementptr inbounds [60 x i32], [60 x i32]* %3, i64 0, i64 %107
  %109 = load i32, i32* %108, align 4
  %110 = load i32, i32* %4, align 4
  %111 = sext i32 %110 to i64
  %112 = getelementptr inbounds [60 x i32], [60 x i32]* %3, i64 0, i64 %111
  %113 = load i32, i32* %112, align 4
  %114 = sub nsw i32 %109, %113
  %115 = load i32, i32* %4, align 4
  %116 = sext i32 %115 to i64
  %117 = getelementptr inbounds [60 x i32], [60 x i32]* %2, i64 0, i64 %116
  store i32 %114, i32* %117, align 4
  br label %118

118:                                              ; preds = %104
  %119 = load i32, i32* %4, align 4
  %120 = add nsw i32 %119, 1
  store i32 %120, i32* %4, align 4
  br label %100

121:                                              ; preds = %100
  store i32 0, i32* %10, align 4
  store i32 0, i32* %11, align 4
  store i32 1, i32* %7, align 4
  br label %122

122:                                              ; preds = %157, %121
  %123 = load i32, i32* %7, align 4
  %124 = load i32, i32* %5, align 4
  %125 = icmp slt i32 %123, %124
  br i1 %125, label %126, label %160

126:                                              ; preds = %122
  %127 = load i32, i32* %10, align 4
  %128 = sext i32 %127 to i64
  %129 = getelementptr inbounds [60 x i32], [60 x i32]* %2, i64 0, i64 %128
  %130 = load i32, i32* %129, align 4
  %131 = load i32, i32* %7, align 4
  %132 = sext i32 %131 to i64
  %133 = getelementptr inbounds [60 x i32], [60 x i32]* %2, i64 0, i64 %132
  %134 = load i32, i32* %133, align 4
  %135 = icmp slt i32 %130, %134
  br i1 %135, label %136, label %138

136:                                              ; preds = %126
  %137 = load i32, i32* %7, align 4
  store i32 %137, i32* %10, align 4
  br label %138

138:                                              ; preds = %136, %126
  %139 = load i32, i32* %11, align 4
  %140 = sext i32 %139 to i64
  %141 = getelementptr inbounds [60 x i32], [60 x i32]* %2, i64 0, i64 %140
  %142 = load i32, i32* %141, align 4
  %143 = load i32, i32* %7, align 4
  %144 = sext i32 %143 to i64
  %145 = getelementptr inbounds [60 x i32], [60 x i32]* %2, i64 0, i64 %144
  %146 = load i32, i32* %145, align 4
  %147 = icmp sgt i32 %142, %146
  br i1 %147, label %148, label %156

148:                                              ; preds = %138
  %149 = load i32, i32* %7, align 4
  %150 = sext i32 %149 to i64
  %151 = getelementptr inbounds [60 x i32], [60 x i32]* %2, i64 0, i64 %150
  %152 = load i32, i32* %151, align 4
  %153 = icmp sgt i32 %152, 0
  br i1 %153, label %154, label %156

154:                                              ; preds = %148
  %155 = load i32, i32* %7, align 4
  store i32 %155, i32* %11, align 4
  br label %156

156:                                              ; preds = %154, %148, %138
  br label %157

157:                                              ; preds = %156
  %158 = load i32, i32* %7, align 4
  %159 = add nsw i32 %158, 1
  store i32 %159, i32* %7, align 4
  br label %122

160:                                              ; preds = %122
  %161 = load i32, i32* %10, align 4
  %162 = sext i32 %161 to i64
  %163 = getelementptr inbounds [60 x i32], [60 x i32]* %3, i64 0, i64 %162
  %164 = load i32, i32* %163, align 4
  %165 = add nsw i32 %164, 1
  store i32 %165, i32* %12, align 4
  %166 = load i32, i32* %10, align 4
  %167 = add nsw i32 %166, 1
  %168 = sext i32 %167 to i64
  %169 = getelementptr inbounds [60 x i32], [60 x i32]* %3, i64 0, i64 %168
  %170 = load i32, i32* %169, align 4
  %171 = sext i32 %170 to i64
  %172 = getelementptr inbounds [200 x i8], [200 x i8]* %1, i64 0, i64 %171
  store i8 0, i8* %172, align 1
  %173 = load i32, i32* %12, align 4
  %174 = sext i32 %173 to i64
  %175 = getelementptr inbounds [200 x i8], [200 x i8]* %1, i64 0, i64 %174
  %176 = call i32 (i8*, ...) @printf(i8* getelementptr inbounds ([4 x i8], [4 x i8]* @.str, i64 0, i64 0), i8* %175)
  %177 = load i32, i32* %11, align 4
  %178 = sext i32 %177 to i64
  %179 = getelementptr inbounds [60 x i32], [60 x i32]* %3, i64 0, i64 %178
  %180 = load i32, i32* %179, align 4
  %181 = add nsw i32 %180, 1
  store i32 %181, i32* %12, align 4
  %182 = load i32, i32* %11, align 4
  %183 = add nsw i32 %182, 1
  %184 = sext i32 %183 to i64
  %185 = getelementptr inbounds [60 x i32], [60 x i32]* %3, i64 0, i64 %184
  %186 = load i32, i32* %185, align 4
  %187 = sext i32 %186 to i64
  %188 = getelementptr inbounds [200 x i8], [200 x i8]* %1, i64 0, i64 %187
  store i8 0, i8* %188, align 1
  %189 = load i32, i32* %12, align 4
  %190 = sext i32 %189 to i64
  %191 = getelementptr inbounds [200 x i8], [200 x i8]* %1, i64 0, i64 %190
  %192 = call i32 (i8*, ...) @printf(i8* getelementptr inbounds ([4 x i8], [4 x i8]* @.str, i64 0, i64 0), i8* %191)
  ret void
}

; Function Attrs: argmemonly nounwind willreturn
declare void @llvm.memset.p0i8.i64(i8* nocapture writeonly, i8, i64, i1 immarg) #1

declare dso_local i32 @gets(...) #2

; Function Attrs: nounwind readonly
declare dso_local i64 @strlen(i8*) #3

declare dso_local i32 @printf(i8*, ...) #2


!llvm.module.flags = !{!0}
!llvm.ident = !{!1}

!0 = !{i32 1, !"wchar_size", i32 4}
!1 = !{!"clang version 10.0.0-4ubuntu1 "}
